; Function Attrs: mustprogress uwtable
define dso_local void @_ZN17cmGlobalGenerator23AddBuildExportExportSetEP26cmExportBuildFileGenerator(ptr noundef nonnull align 8 dereferenceable(1778) %0, ptr noundef nonnull %1) local_unnamed_addr #3 align 2 {
  %3 = getelementptr inbounds i8, ptr %0, i64 384
  %4 = tail call noundef nonnull align 8 dereferenceable(32) ptr @_ZNK21cmExportFileGenerator21GetMainExportFileNameB5cxx11Ev(ptr noundef nonnull align 8 dereferenceable(341) %1)
  %5 = tail call noundef nonnull align 8 dereferenceable(8) ptr @_ZNSt3mapINSt7__cxx1112basic_stringIcSt11char_traitsIcESaIcEEEP26cmExportBuildFileGeneratorSt4lessIS5_ESaISt4pairIKS5_S7_EEEixERSB_(ptr noundef nonnull align 8 dereferenceable(48) %3, ptr noundef nonnull align 8 dereferenceable(32) %4)
  store ptr %1, ptr %5, align 8
  %6 = getelementptr inbounds i8, ptr %0, i64 336
  %7 = tail call noundef nonnull align 8 dereferenceable(32) ptr @_ZNK21cmExportFileGenerator21GetMainExportFileNameB5cxx11Ev(ptr noundef nonnull align 8 dereferenceable(341) %1)
  %8 = tail call noundef nonnull align 8 dereferenceable(8) ptr @_ZNSt3mapINSt7__cxx1112basic_stringIcSt11char_traitsIcESaIcEEEP26cmExportBuildFileGeneratorSt4lessIS5_ESaISt4pairIKS5_S7_EEEixERSB_(ptr noundef nonnull align 8 dereferenceable(48) %6, ptr noundef nonnull align 8 dereferenceable(32) %7)
  store ptr %1, ptr %8, align 8
  ret void
}